Certificate:
    Data:
        Version: 3 (0x2)
        Serial Number: 39 (0x27)
        Signature Algorithm: sha256WithRSAEncryption
        Issuer: C=US, O=Google, OU=Enterprise, CN=Enterprise Subordinate CA
        Validity
            Not Before: Sep 12 14:31:53 2022 GMT
            Not After : Dec 20 14:31:53 2024 GMT
        Subject: C=US, O=Google, OU=Enterprise, CN=tokenclient.otherdomain.com
        Subject Public Key Info:
            Public Key Algorithm: rsaEncryption
                Public-Key: (2048 bit)
                Modulus:
                    00:cc:6a:a0:e3:1b:d8:e9:21:00:bc:f1:c2:c0:ba:
                    07:a4:a9:8e:32:02:e0:74:d2:40:c7:09:44:b8:7e:
                    32:2b:85:88:05:02:6c:07:76:92:70:37:f6:6b:9e:
                    69:ad:51:fd:76:e2:26:5c:09:31:c6:aa:9b:70:61:
                    57:c5:09:cc:31:b1:86:12:62:45:bf:94:c6:97:8a:
                    90:00:ff:ab:64:7a:7d:d6:be:d2:e3:e1:e9:11:72:
                    39:27:7f:21:15:d7:ce:59:63:e2:f2:9b:df:7e:eb:
                    bb:18:5d:c8:d2:aa:87:98:28:d1:51:7b:2a:ca:b3:
                    41:8f:0f:c7:f2:ac:69:ab:06:d6:e0:16:1c:d8:da:
                    58:d4:32:28:5a:13:3d:c1:cf:9b:5a:58:3e:19:ac:
                    9c:d2:11:53:a4:1d:6b:61:c2:30:7a:fe:5b:05:f9:
                    7e:aa:2b:3b:44:a6:fa:67:1b:30:fa:39:ad:ff:84:
                    9e:66:85:c0:15:5e:f0:a5:9c:5b:bd:55:ef:65:04:
                    1d:ba:b1:24:e9:14:cb:3d:89:93:4e:f7:cd:44:9a:
                    0d:06:0c:ee:a6:10:f8:8c:69:59:3b:9b:43:85:89:
                    a0:99:6f:c0:f7:f8:25:44:6e:28:41:eb:57:62:f7:
                    2a:a8:a4:c5:5c:d8:42:59:d3:b8:b7:72:fe:16:1a:
                    6d:6d
                Exponent: 65537 (0x10001)
        X509v3 extensions:
            X509v3 Key Usage: critical
                Digital Signature
            X509v3 Basic Constraints: 
                CA:FALSE
            X509v3 Extended Key Usage: 
                TLS Web Client Authentication
            X509v3 Subject Key Identifier: 
                F5:07:AA:1C:72:F3:CD:88:4D:23:9C:CD:F4:30:BD:DD:45:A7:37:A5
            X509v3 Authority Key Identifier: 
                B7:BA:B0:02:A1:E7:BE:34:C6:C1:05:5C:66:78:E5:BB:53:5D:A1:54
            Authority Information Access: 
                CA Issuers - URI:http://pki.esodemoapp2.com/ca/tls-ca.cer
            X509v3 CRL Distribution Points: 
                Full Name:
                  URI:http://pki.esodemoapp2.com/ca/tls-ca.crl
            X509v3 Subject Alternative Name: 
                URI:spiffe://otherdomain.com/ns/default/sa/default/tokenclient
    Signature Algorithm: sha256WithRSAEncryption
    Signature Value:
        0b:73:9a:b4:59:bb:9e:c6:1a:6a:6b:88:73:13:a5:b1:2f:16:
        9c:60:44:98:b4:c6:46:f3:47:42:23:a2:fc:e3:b5:3e:52:5b:
        b7:95:ad:8d:7a:fc:4d:b3:1b:31:4f:47:eb:5e:46:10:a5:ac:
        5a:0f:f1:d3:c8:65:60:e1:63:25:90:3b:9a:93:de:6f:2b:86:
        8c:64:ea:5d:13:2f:86:fe:22:0c:53:ca:a8:2a:52:ab:43:8a:
        b5:e7:fb:ce:55:fd:ba:4f:17:8e:5b:e7:a6:17:7a:5e:26:71:
        69:86:1d:f6:f7:82:5c:bc:48:ad:31:c5:2f:03:7b:bf:ca:61:
        d1:56:24:32:b8:73:2c:0f:eb:c1:3e:aa:2b:44:6a:bc:d9:dd:
        8a:09:09:89:8d:70:ef:30:55:5c:86:01:f6:c2:8d:b4:0d:e2:
        d4:5b:35:11:a5:80:fa:ba:2a:f7:fa:ce:d6:55:35:e8:dd:69:
        6d:a2:75:2e:17:2e:b1:66:ee:5b:5b:a3:eb:e9:cc:70:37:2d:
        41:24:69:ba:8a:9b:76:40:e9:99:51:91:28:1c:18:11:4a:29:
        74:94:2d:e7:4d:42:4d:50:a3:65:89:20:12:4c:6c:17:50:3b:
        35:82:43:71:32:f9:c4:0c:cc:4f:66:6f:00:ab:4b:af:01:c6:
        f3:3e:a2:d2
-----BEGIN CERTIFICATE-----
MIIEaTCCA1GgAwIBAgIBJzANBgkqhkiG9w0BAQsFADBXMQswCQYDVQQGEwJVUzEP
MA0GA1UECgwGR29vZ2xlMRMwEQYDVQQLDApFbnRlcnByaXNlMSIwIAYDVQQDDBlF
bnRlcnByaXNlIFN1Ym9yZGluYXRlIENBMB4XDTIyMDkxMjE0MzE1M1oXDTI0MTIy
MDE0MzE1M1owWTELMAkGA1UEBhMCVVMxDzANBgNVBAoMBkdvb2dsZTETMBEGA1UE
CwwKRW50ZXJwcmlzZTEkMCIGA1UEAwwbdG9rZW5jbGllbnQub3RoZXJkb21haW4u
Y29tMIIBIjANBgkqhkiG9w0BAQEFAAOCAQ8AMIIBCgKCAQEAzGqg4xvY6SEAvPHC
wLoHpKmOMgLgdNJAxwlEuH4yK4WIBQJsB3aScDf2a55prVH9duImXAkxxqqbcGFX
xQnMMbGGEmJFv5TGl4qQAP+rZHp91r7S4+HpEXI5J38hFdfOWWPi8pvffuu7GF3I
0qqHmCjRUXsqyrNBjw/H8qxpqwbW4BYc2NpY1DIoWhM9wc+bWlg+Gayc0hFTpB1r
YcIwev5bBfl+qis7RKb6Zxsw+jmt/4SeZoXAFV7wpZxbvVXvZQQdurEk6RTLPYmT
TvfNRJoNBgzuphD4jGlZO5tDhYmgmW/A9/glRG4oQetXYvcqqKTFXNhCWdO4t3L+
FhptbQIDAQABo4IBPDCCATgwDgYDVR0PAQH/BAQDAgeAMAkGA1UdEwQCMAAwEwYD
VR0lBAwwCgYIKwYBBQUHAwIwHQYDVR0OBBYEFPUHqhxy882ITSOczfQwvd1Fpzel
MB8GA1UdIwQYMBaAFLe6sAKh5740xsEFXGZ45btTXaFUMEQGCCsGAQUFBwEBBDgw
NjA0BggrBgEFBQcwAoYoaHR0cDovL3BraS5lc29kZW1vYXBwMi5jb20vY2EvdGxz
LWNhLmNlcjA5BgNVHR8EMjAwMC6gLKAqhihodHRwOi8vcGtpLmVzb2RlbW9hcHAy
LmNvbS9jYS90bHMtY2EuY3JsMEUGA1UdEQQ+MDyGOnNwaWZmZTovL290aGVyZG9t
YWluLmNvbS9ucy9kZWZhdWx0L3NhL2RlZmF1bHQvdG9rZW5jbGllbnQwDQYJKoZI
hvcNAQELBQADggEBAAtzmrRZu57GGmpriHMTpbEvFpxgRJi0xkbzR0IjovzjtT5S
W7eVrY16/E2zGzFPR+teRhClrFoP8dPIZWDhYyWQO5qT3m8rhoxk6l0TL4b+IgxT
yqgqUqtDirXn+85V/bpPF45b56YXel4mcWmGHfb3gly8SK0xxS8De7/KYdFWJDK4
cywP68E+qitEarzZ3YoJCYmNcO8wVVyGAfbCjbQN4tRbNRGlgPq6Kvf6ztZVNejd
aW2idS4XLrFm7ltbo+vpzHA3LUEkabqKm3ZA6ZlRkSgcGBFKKXSULedNQk1Qo2WJ
IBJMbBdQOzWCQ3Ey+cQMzE9mbwCrS68BxvM+otI=
-----END CERTIFICATE-----
