Certificate:
    Data:
        Version: 3 (0x2)
        Serial Number: 38 (0x26)
        Signature Algorithm: sha256WithRSAEncryption
        Issuer: C=US, O=Google, OU=Enterprise, CN=Enterprise Subordinate CA
        Validity
            Not Before: Sep 12 14:29:06 2022 GMT
            Not After : Dec 20 14:29:06 2024 GMT
        Subject: C=US, O=Google, OU=Enterprise, CN=tokenservice.esodemoapp2.com
        Subject Public Key Info:
            Public Key Algorithm: rsaEncryption
                Public-Key: (2048 bit)
                Modulus:
                    00:95:9d:90:66:d1:04:72:05:48:f6:be:b3:29:76:
                    4b:2d:ed:7b:3c:60:bb:20:da:0f:ce:6d:da:07:a1:
                    23:76:75:57:58:7f:b8:01:5a:4d:3b:67:e0:23:da:
                    7d:bd:2a:0e:d0:da:77:0b:4b:e9:ae:ab:ff:32:2c:
                    a8:d5:ef:c3:b0:9d:0a:ba:5a:5f:e2:6e:7f:8b:25:
                    52:fa:59:55:2c:cb:13:c8:00:36:be:92:76:af:f5:
                    bb:1a:b6:98:e0:29:44:d4:89:71:c5:dd:ba:20:12:
                    9a:7b:17:7a:31:dc:1b:20:14:6f:e1:49:ef:76:68:
                    ba:33:55:1c:8e:e8:5b:c7:9e:7a:8d:2a:03:ea:58:
                    76:e8:2c:a5:c3:fb:1f:fe:19:c8:26:99:cb:83:ae:
                    95:5f:ca:5a:61:9e:1d:d5:c1:89:78:54:0e:a7:51:
                    61:51:fd:d9:96:db:6f:bb:9b:72:82:7b:b5:bb:fe:
                    19:05:47:14:97:6d:1a:57:fd:6c:e1:96:3c:bb:db:
                    83:48:3c:2c:60:a7:51:1f:08:93:e9:fd:2b:f6:8d:
                    88:5b:2d:e6:ca:3e:43:f6:ee:f0:ea:52:fa:2c:c1:
                    69:2b:93:5d:5e:fb:96:e1:23:53:2d:a5:b3:7d:af:
                    2d:52:4d:bf:7c:bf:44:b1:a0:67:71:dc:4e:e9:05:
                    ca:29
                Exponent: 65537 (0x10001)
        X509v3 extensions:
            X509v3 Key Usage: critical
                Digital Signature, Key Encipherment
            X509v3 Basic Constraints: 
                CA:FALSE
            X509v3 Extended Key Usage: 
                TLS Web Server Authentication, TLS Web Client Authentication
            X509v3 Subject Key Identifier: 
                E5:66:F6:32:A8:A3:2A:E1:4D:18:EB:71:58:BB:F6:7B:87:BF:D5:C6
            X509v3 Authority Key Identifier: 
                B7:BA:B0:02:A1:E7:BE:34:C6:C1:05:5C:66:78:E5:BB:53:5D:A1:54
            Authority Information Access: 
                CA Issuers - URI:http://pki.esodemoapp2.com/ca/tls-ca.cer
            X509v3 CRL Distribution Points: 
                Full Name:
                  URI:http://pki.esodemoapp2.com/ca/tls-ca.crl
            X509v3 Subject Alternative Name: 
                DNS:tokenservice.esodemoapp2.com
    Signature Algorithm: sha256WithRSAEncryption
    Signature Value:
        b2:83:79:6e:db:82:e1:de:a7:8b:c3:f7:e2:50:13:5b:2e:b2:
        4e:b6:1c:84:74:51:0a:f5:dc:0d:b5:e8:bf:05:4c:25:17:9d:
        99:99:5f:53:7d:9e:a0:64:21:87:d9:5f:d6:74:71:d8:c9:71:
        93:5f:af:cf:39:78:fa:8f:cd:25:e8:2e:09:3a:5c:60:3e:dd:
        b5:bd:e7:53:9a:f2:27:94:1c:e0:5a:96:2e:9c:d1:bc:41:05:
        f1:de:81:de:44:8c:09:86:a1:16:d5:8d:99:18:f1:2c:28:99:
        3c:dc:c1:da:f5:c3:bb:6b:1c:63:82:9e:9f:a9:4d:17:cd:66:
        a3:7a:16:d2:fd:0e:46:a8:50:a9:17:9c:cb:9f:23:0b:14:78:
        7a:a6:ca:fc:97:0a:04:87:c1:9f:5b:13:57:5b:3d:51:53:7f:
        7d:21:2a:7e:6c:c3:9d:2a:5c:76:94:f8:7b:f6:14:b1:3b:1f:
        e1:23:ba:62:2a:ee:0f:32:50:28:e6:cf:90:ed:fb:19:88:95:
        d6:24:9f:e5:d6:64:91:39:be:40:ea:15:00:27:d9:b0:14:e6:
        59:e6:c2:9a:00:9a:f3:de:15:9b:17:88:0f:fa:55:bc:66:8b:
        e4:e3:37:4a:65:1f:a4:74:0f:4d:bf:80:d1:42:8c:ae:33:36:
        e3:58:58:12
-----BEGIN CERTIFICATE-----
MIIEVjCCAz6gAwIBAgIBJjANBgkqhkiG9w0BAQsFADBXMQswCQYDVQQGEwJVUzEP
MA0GA1UECgwGR29vZ2xlMRMwEQYDVQQLDApFbnRlcnByaXNlMSIwIAYDVQQDDBlF
bnRlcnByaXNlIFN1Ym9yZGluYXRlIENBMB4XDTIyMDkxMjE0MjkwNloXDTI0MTIy
MDE0MjkwNlowWjELMAkGA1UEBhMCVVMxDzANBgNVBAoMBkdvb2dsZTETMBEGA1UE
CwwKRW50ZXJwcmlzZTElMCMGA1UEAwwcdG9rZW5zZXJ2aWNlLmVzb2RlbW9hcHAy
LmNvbTCCASIwDQYJKoZIhvcNAQEBBQADggEPADCCAQoCggEBAJWdkGbRBHIFSPa+
syl2Sy3tezxguyDaD85t2gehI3Z1V1h/uAFaTTtn4CPafb0qDtDadwtL6a6r/zIs
qNXvw7CdCrpaX+Juf4slUvpZVSzLE8gANr6Sdq/1uxq2mOApRNSJccXduiASmnsX
ejHcGyAUb+FJ73ZoujNVHI7oW8eeeo0qA+pYdugspcP7H/4ZyCaZy4OulV/KWmGe
HdXBiXhUDqdRYVH92Zbbb7ubcoJ7tbv+GQVHFJdtGlf9bOGWPLvbg0g8LGCnUR8I
k+n9K/aNiFst5so+Q/bu8OpS+izBaSuTXV77luEjUy2ls32vLVJNv3y/RLGgZ3Hc
TukFyikCAwEAAaOCASgwggEkMA4GA1UdDwEB/wQEAwIFoDAJBgNVHRMEAjAAMB0G
A1UdJQQWMBQGCCsGAQUFBwMBBggrBgEFBQcDAjAdBgNVHQ4EFgQU5Wb2MqijKuFN
GOtxWLv2e4e/1cYwHwYDVR0jBBgwFoAUt7qwAqHnvjTGwQVcZnjlu1NdoVQwRAYI
KwYBBQUHAQEEODA2MDQGCCsGAQUFBzAChihodHRwOi8vcGtpLmVzb2RlbW9hcHAy
LmNvbS9jYS90bHMtY2EuY2VyMDkGA1UdHwQyMDAwLqAsoCqGKGh0dHA6Ly9wa2ku
ZXNvZGVtb2FwcDIuY29tL2NhL3Rscy1jYS5jcmwwJwYDVR0RBCAwHoIcdG9rZW5z
ZXJ2aWNlLmVzb2RlbW9hcHAyLmNvbTANBgkqhkiG9w0BAQsFAAOCAQEAsoN5btuC
4d6ni8P34lATWy6yTrYchHRRCvXcDbXovwVMJRedmZlfU32eoGQhh9lf1nRx2Mlx
k1+vzzl4+o/NJeguCTpcYD7dtb3nU5ryJ5Qc4FqWLpzRvEEF8d6B3kSMCYahFtWN
mRjxLCiZPNzB2vXDu2scY4Ken6lNF81mo3oW0v0ORqhQqRecy58jCxR4eqbK/JcK
BIfBn1sTV1s9UVN/fSEqfmzDnSpcdpT4e/YUsTsf4SO6YiruDzJQKObPkO37GYiV
1iSf5dZkkTm+QOoVACfZsBTmWebCmgCa894VmxeID/pVvGaL5OM3SmUfpHQPTb+A
0UKMrjM241hYEg==
-----END CERTIFICATE-----
