Certificate:
    Data:
        Version: 3 (0x2)
        Serial Number: 5 (0x5)
        Signature Algorithm: sha1WithRSAEncryption
        Issuer: C=US, O=Google, OU=Enterprise, CN=Enterprise Subordinate CA
        Validity
            Not Before: Jun  9 21:46:28 2020 GMT
            Not After : Jun  9 21:46:28 2022 GMT
        Subject: C=US, O=Google, OU=Enterprise, CN=tokenclienta@otherdomain.com
        Subject Public Key Info:
            Public Key Algorithm: rsaEncryption
                RSA Public-Key: (2048 bit)
                Modulus:
                    00:9c:4d:e4:2e:46:35:0e:64:64:be:89:19:39:5e:
                    4d:98:cd:45:9c:61:51:f4:21:d2:e7:fe:4b:04:c4:
                    a9:53:7f:9b:b2:d0:f7:92:10:7d:81:57:19:fb:a5:
                    90:73:6e:aa:06:20:f3:28:9b:aa:9a:53:c3:68:88:
                    f1:b2:e0:47:01:41:38:07:7c:63:ab:98:16:1e:df:
                    c8:73:ba:66:bf:14:87:6d:1f:bd:f6:be:db:53:6d:
                    64:20:31:7e:3a:03:0c:83:bf:5c:23:32:28:d8:66:
                    46:70:b4:c1:53:e3:b2:f6:10:cd:07:26:77:05:9f:
                    86:d9:9d:32:2a:e8:08:d6:b9:ab:25:3a:f6:9f:1f:
                    4d:d4:f9:49:f5:0d:25:e5:08:ff:6b:71:7a:8a:44:
                    37:35:09:cb:91:cb:7a:43:59:7e:7b:aa:fd:61:3b:
                    09:fc:90:e0:48:8b:f5:34:de:f2:1b:45:f0:e3:2c:
                    0b:1c:67:16:35:57:5a:83:78:87:ef:eb:83:2a:69:
                    32:04:69:04:5b:1d:f6:58:6f:a3:69:fe:44:3c:4f:
                    cc:46:9a:b4:91:fd:13:38:24:a5:b3:84:61:a0:40:
                    7f:d0:e6:df:80:31:3b:bb:34:78:41:33:8a:4a:0a:
                    1c:46:19:6d:1d:5d:33:cb:2c:df:c5:ef:da:a5:3c:
                    b8:9d
                Exponent: 65537 (0x10001)
        X509v3 extensions:
            X509v3 Key Usage: critical
                Digital Signature
            X509v3 Basic Constraints: 
                CA:FALSE
            X509v3 Extended Key Usage: 
                TLS Web Client Authentication
            X509v3 Subject Key Identifier: 
                D8:1B:A0:25:9E:B0:A9:28:6C:64:B0:FF:EF:D6:5F:39:7F:36:1A:8E
            X509v3 Authority Key Identifier: 
                keyid:BF:E1:1C:F0:22:48:8F:FC:3B:CF:5D:D9:ED:AE:88:70:21:DF:DD:86

            Authority Information Access: 
                CA Issuers - URI:http://pki.esodemoapp2.com/ca/tls-ca.cer

            X509v3 CRL Distribution Points: 

                Full Name:
                  URI:http://pki.esodemoapp2.com/ca/tls-ca.crl

            X509v3 Subject Alternative Name: 
                email:tokenclienta@otherdomain.com
    Signature Algorithm: sha1WithRSAEncryption
         c3:95:8e:c3:4d:9d:6e:62:b8:96:bf:5a:b2:34:b6:0a:c2:db:
         cb:c6:3e:07:d5:ce:65:9f:c9:e4:f0:28:9e:a3:b2:f0:9b:1b:
         ab:5f:82:f9:ce:df:c9:35:8a:18:10:75:1f:68:bc:a5:25:4f:
         22:8f:4d:89:c6:ab:ff:db:db:c8:22:34:9e:6c:89:58:45:11:
         ba:19:d3:d7:77:a1:6d:a8:53:92:d3:69:07:67:4b:ea:ca:1c:
         fa:68:51:d8:bb:ae:77:4c:fe:29:0b:2d:c9:96:a2:83:18:a5:
         eb:de:65:7a:f7:74:6e:8e:64:2e:7a:e8:18:8e:34:5b:f6:5c:
         60:6e:41:9c:3c:12:f6:e8:e2:7d:fb:be:9a:90:8e:6a:eb:50:
         1a:7e:e1:f2:94:a8:c7:b6:9f:09:86:69:1e:84:f8:54:e8:e3:
         d8:77:bd:cd:27:c4:23:0b:2b:ee:01:8c:00:b8:d8:d2:eb:bd:
         49:db:fe:40:95:8d:c7:89:f7:a8:63:5c:4b:db:93:f9:15:39:
         ad:09:c3:5c:bb:3e:35:94:29:5d:45:b0:b2:0e:ec:8d:d3:63:
         1c:e7:21:7a:72:85:4e:df:fc:32:3d:5d:87:b1:01:39:c8:fb:
         e3:d1:bd:47:19:c2:83:97:99:d0:b7:c1:fb:54:e7:47:c5:17:
         ac:f1:e3:15
-----BEGIN CERTIFICATE-----
MIIETDCCAzSgAwIBAgIBBTANBgkqhkiG9w0BAQUFADBXMQswCQYDVQQGEwJVUzEP
MA0GA1UECgwGR29vZ2xlMRMwEQYDVQQLDApFbnRlcnByaXNlMSIwIAYDVQQDDBlF
bnRlcnByaXNlIFN1Ym9yZGluYXRlIENBMB4XDTIwMDYwOTIxNDYyOFoXDTIyMDYw
OTIxNDYyOFowWjELMAkGA1UEBhMCVVMxDzANBgNVBAoMBkdvb2dsZTETMBEGA1UE
CwwKRW50ZXJwcmlzZTElMCMGA1UEAwwcdG9rZW5jbGllbnRhQG90aGVyZG9tYWlu
LmNvbTCCASIwDQYJKoZIhvcNAQEBBQADggEPADCCAQoCggEBAJxN5C5GNQ5kZL6J
GTleTZjNRZxhUfQh0uf+SwTEqVN/m7LQ95IQfYFXGfulkHNuqgYg8yibqppTw2iI
8bLgRwFBOAd8Y6uYFh7fyHO6Zr8Uh20fvfa+21NtZCAxfjoDDIO/XCMyKNhmRnC0
wVPjsvYQzQcmdwWfhtmdMiroCNa5qyU69p8fTdT5SfUNJeUI/2txeopENzUJy5HL
ekNZfnuq/WE7CfyQ4EiL9TTe8htF8OMsCxxnFjVXWoN4h+/rgyppMgRpBFsd9lhv
o2n+RDxPzEaatJH9EzgkpbOEYaBAf9Dm34AxO7s0eEEzikoKHEYZbR1dM8ss38Xv
2qU8uJ0CAwEAAaOCAR4wggEaMA4GA1UdDwEB/wQEAwIHgDAJBgNVHRMEAjAAMBMG
A1UdJQQMMAoGCCsGAQUFBwMCMB0GA1UdDgQWBBTYG6AlnrCpKGxksP/v1l85fzYa
jjAfBgNVHSMEGDAWgBS/4RzwIkiP/DvPXdntrohwId/dhjBEBggrBgEFBQcBAQQ4
MDYwNAYIKwYBBQUHMAKGKGh0dHA6Ly9wa2kuZXNvZGVtb2FwcDIuY29tL2NhL3Rs
cy1jYS5jZXIwOQYDVR0fBDIwMDAuoCygKoYoaHR0cDovL3BraS5lc29kZW1vYXBw
Mi5jb20vY2EvdGxzLWNhLmNybDAnBgNVHREEIDAegRx0b2tlbmNsaWVudGFAb3Ro
ZXJkb21haW4uY29tMA0GCSqGSIb3DQEBBQUAA4IBAQDDlY7DTZ1uYriWv1qyNLYK
wtvLxj4H1c5ln8nk8Cieo7LwmxurX4L5zt/JNYoYEHUfaLylJU8ij02Jxqv/29vI
IjSebIlYRRG6GdPXd6FtqFOS02kHZ0vqyhz6aFHYu653TP4pCy3JlqKDGKXr3mV6
93RujmQueugYjjRb9lxgbkGcPBL26OJ9+76akI5q61AafuHylKjHtp8JhmkehPhU
6OPYd73NJ8QjCyvuAYwAuNjS671J2/5AlY3HifeoY1xL25P5FTmtCcNcuz41lCld
RbCyDuyN02Mc5yF6coVO3/wyPV2HsQE5yPvj0b1HGcKDl5nQt8H7VOdHxRes8eMV
-----END CERTIFICATE-----
